target datalayout = "e-m:e-p270:32:32-p271:32:32-p272:64:64-i64:64-i128:128-f80:128-n8:16:32:64-S128"
target triple = "x86_64-unknown-linux-gnu"

%struct.Type = type { i32, i32, i32, i8, i8, ptr, ptr, ptr, ptr, i32, ptr, ptr, ptr, i8, i8, ptr, ptr, i8, ptr }

; Function Attrs: nounwind uwtable
define dso_local zeroext i1 @is_flonum(ptr noundef %ty) #0 {
entry:
  %ty.addr = alloca ptr, align 8
  store ptr %ty, ptr %ty.addr, align 8
  %0 = load ptr, ptr %ty.addr, align 8
  %kind = getelementptr inbounds %struct.Type, ptr %0, i32 0, i32 0
  %1 = load i32, ptr %kind, align 8
  %cmp = icmp eq i32 %1, 6
  br i1 %cmp, label %lor.end, label %lor.lhs.false

lor.lhs.false:                                    ; preds = %entry
  %2 = load ptr, ptr %ty.addr, align 8
  %kind1 = getelementptr inbounds %struct.Type, ptr %2, i32 0, i32 0
  %3 = load i32, ptr %kind1, align 8
  %cmp2 = icmp eq i32 %3, 7
  br i1 %cmp2, label %lor.end, label %lor.rhs

lor.rhs:                                          ; preds = %lor.lhs.false
  %4 = load ptr, ptr %ty.addr, align 8
  %kind3 = getelementptr inbounds %struct.Type, ptr %4, i32 0, i32 0
  %5 = load i32, ptr %kind3, align 8
  %cmp4 = icmp eq i32 %5, 8
  br label %lor.end

lor.end:                                          ; preds = %lor.rhs, %lor.lhs.false, %entry
  %6 = phi i1 [ true, %lor.lhs.false ], [ true, %entry ], [ %cmp4, %lor.rhs ]
  ret i1 %6
}

; Function Attrs: nounwind uwtable
define dso_local zeroext i1 @is_integer(ptr noundef %ty) #0 {
entry:
  %ty.addr = alloca ptr, align 8
  %k = alloca i32, align 4
  store ptr %ty, ptr %ty.addr, align 8
  %0 = load ptr, ptr %ty.addr, align 8
  %kind = getelementptr inbounds %struct.Type, ptr %0, i32 0, i32 0
  %1 = load i32, ptr %kind, align 8
  store i32 %1, ptr %k, align 4
  %2 = load i32, ptr %k, align 4
  %cmp = icmp eq i32 %2, 1
  br i1 %cmp, label %lor.end, label %lor.lhs.false

lor.lhs.false:                                    ; preds = %entry
  %3 = load i32, ptr %k, align 4
  %cmp1 = icmp eq i32 %3, 2
  br i1 %cmp1, label %lor.end, label %lor.lhs.false2

lor.lhs.false2:                                   ; preds = %lor.lhs.false
  %4 = load i32, ptr %k, align 4
  %cmp3 = icmp eq i32 %4, 3
  br i1 %cmp3, label %lor.end, label %lor.lhs.false4

lor.lhs.false4:                                   ; preds = %lor.lhs.false2
  %5 = load i32, ptr %k, align 4
  %cmp5 = icmp eq i32 %5, 4
  br i1 %cmp5, label %lor.end, label %lor.lhs.false6

lor.lhs.false6:                                   ; preds = %lor.lhs.false4
  %6 = load i32, ptr %k, align 4
  %cmp7 = icmp eq i32 %6, 5
  br i1 %cmp7, label %lor.end, label %lor.rhs

lor.rhs:                                          ; preds = %lor.lhs.false6
  %7 = load i32, ptr %k, align 4
  %cmp8 = icmp eq i32 %7, 9
  br label %lor.end

lor.end:                                          ; preds = %lor.rhs, %lor.lhs.false6, %lor.lhs.false4, %lor.lhs.false2, %lor.lhs.false, %entry
  %8 = phi i1 [ true, %lor.lhs.false6 ], [ true, %lor.lhs.false4 ], [ true, %lor.lhs.false2 ], [ true, %lor.lhs.false ], [ true, %entry ], [ %cmp8, %lor.rhs ]
  ret i1 %8
}

; Function Attrs: nounwind uwtable
define dso_local zeroext i1 @is_numeric(ptr noundef %ty) #0 {
entry:
  %ty.addr = alloca ptr, align 8
  store ptr %ty, ptr %ty.addr, align 8
  %0 = load ptr, ptr %ty.addr, align 8
  %call = call zeroext i1 @is_integer(ptr noundef %0)
  br i1 %call, label %lor.end, label %lor.rhs

lor.rhs:                                          ; preds = %entry
  %1 = load ptr, ptr %ty.addr, align 8
  %call1 = call zeroext i1 @is_flonum(ptr noundef %1)
  br label %lor.end

lor.end:                                          ; preds = %lor.rhs, %entry
  %2 = phi i1 [ true, %entry ], [ %call1, %lor.rhs ]
  ret i1 %2
}