; Function Attrs: mustprogress nofree norecurse nosync nounwind willreturn memory(argmem: read) uwtable
define dso_local noundef zeroext i1 @is_numeric(ptr nocapture noundef readonly %ty) local_unnamed_addr #0 {
entry:
  %0 = load i32, ptr %ty, align 8
  %switch.tableidx = add i32 %0, -1
  %1 = icmp ult i32 %switch.tableidx, 9
  br i1 %1, label %switch.hole_check, label %lor.rhs

lor.rhs:                                          ; preds = %switch.hole_check, %entry
  %.off.i = add i32 %0, -6
  %switch.i = icmp ult i32 %.off.i, 3
  br label %lor.end

switch.hole_check:                                ; preds = %entry
  %switch.maskindex = trunc i32 %switch.tableidx to i16
  %switch.shifted = lshr i16 287, %switch.maskindex
  %2 = and i16 %switch.shifted, 1
  %switch.lobit.not = icmp eq i16 %2, 0
  br i1 %switch.lobit.not, label %lor.rhs, label %lor.end

lor.end:                                          ; preds = %switch.hole_check, %lor.rhs
  %3 = phi i1 [ %switch.i, %lor.rhs ], [ true, %switch.hole_check ]
  ret i1 %3
}